; Function Attrs: null_pointer_is_valid sspstrong uwtable
define internal fastcc void @dissect_query_afp_byte_lock_ext(ptr noundef %0, ptr noundef %1) unnamed_addr #1 {
  %3 = tail call zeroext i8 @tvb_get_uint8(ptr noundef %0, i32 noundef 1)
  %4 = load i32, ptr @ett_afp_lock_flags, align 4
  %5 = zext i8 %3 to i32
  %6 = tail call ptr (ptr, ptr, i32, i32, i32, ptr, ptr, ...) @proto_tree_add_subtree_format(ptr noundef %1, ptr noundef %0, i32 noundef 1, i32 noundef 1, i32 noundef %4, ptr noundef null, ptr noundef nonnull @.str.1055, i32 noundef %5)
  %7 = load i32, ptr @hf_afp_lock_op, align 4
  %8 = tail call ptr @proto_tree_add_item(ptr noundef %6, i32 noundef %7, ptr noundef %0, i32 noundef 1, i32 noundef 1, i32 noundef 0)
  %9 = load i32, ptr @hf_afp_lock_from, align 4
  %10 = tail call ptr @proto_tree_add_item(ptr noundef %6, i32 noundef %9, ptr noundef %0, i32 noundef 1, i32 noundef 1, i32 noundef 0)
  %11 = load i32, ptr @hf_afp_ofork, align 4
  %12 = tail call ptr @proto_tree_add_item(ptr noundef %1, i32 noundef %11, ptr noundef %0, i32 noundef 2, i32 noundef 2, i32 noundef 0)
  %13 = load i32, ptr @hf_afp_lock_offset64, align 4
  %14 = tail call ptr @proto_tree_add_item(ptr noundef %1, i32 noundef %13, ptr noundef %0, i32 noundef 4, i32 noundef 8, i32 noundef 0)
  %15 = load i32, ptr @hf_afp_lock_len64, align 4
  %16 = tail call ptr @proto_tree_add_item(ptr noundef %1, i32 noundef %15, ptr noundef %0, i32 noundef 12, i32 noundef 8, i32 noundef 0)
  ret void
}